; Function Attrs: mustprogress nounwind uwtable
define hidden void @_ZN8JVMCIEnv29set_JavaConstant_NULL_POINTERE11JVMCIObject(ptr noundef nonnull align 8 dereferenceable(64) %0, ptr %1, i8 %2) local_unnamed_addr #0 align 2 {
  %4 = getelementptr inbounds i8, ptr %0, i64 24
  %5 = load i8, ptr %4, align 8
  %6 = trunc i8 %5 to i1
  br i1 %6, label %7, label %9

7:                                                ; preds = %3
  %8 = tail call noundef ptr @_ZN12HotSpotJVMCI7resolveE11JVMCIObject(ptr %1, i8 %2) #14
  tail call void @_ZN12HotSpotJVMCI12JavaConstant16set_NULL_POINTEREP8JVMCIEnvP7oopDesc(ptr noundef nonnull %0, ptr noundef %8) #14
  br label %10

9:                                                ; preds = %3
  tail call void @_ZN8JNIJVMCI12JavaConstant16set_NULL_POINTEREP8JVMCIEnv11JVMCIObject(ptr noundef nonnull %0, ptr %1, i8 %2) #14
  br label %10

10:                                               ; preds = %9, %7
  ret void
}